target datalayout = "e-m:e-p270:32:32-p271:32:32-p272:64:64-i64:64-i128:128-f80:128-n8:16:32:64-S128"
target triple = "x86_64-pc-linux-gnu"

%struct.block_ = type { [128 x i64] }
%struct.Argon2_instance_t = type { ptr, ptr, i32, i32, i32, i32, i32, i32, i32, i32, i32 }
%struct.block_region_ = type { ptr, ptr, i64 }
%struct.Argon2_Context = type { ptr, i32, ptr, i32, ptr, i32, ptr, i32, ptr, i32, i32, i32, i32, i32, i32 }

; Function Attrs: nounwind ssp uwtable
define internal void @free_memory(ptr noundef %0) #0 {
  %2 = alloca ptr, align 8
  store ptr %0, ptr %2, align 8
  %3 = load ptr, ptr %2, align 8
  %4 = icmp ne ptr %3, null
  br i1 %4, label %5, label %21

5:                                                ; preds = %1
  %6 = load ptr, ptr %2, align 8
  %7 = getelementptr inbounds nuw %struct.block_region_, ptr %6, i32 0, i32 0
  %8 = load ptr, ptr %7, align 8
  %9 = icmp ne ptr %8, null
  br i1 %9, label %10, label %21

10:                                               ; preds = %5
  %11 = load ptr, ptr %2, align 8
  %12 = getelementptr inbounds nuw %struct.block_region_, ptr %11, i32 0, i32 0
  %13 = load ptr, ptr %12, align 8
  %14 = load ptr, ptr %2, align 8
  %15 = getelementptr inbounds nuw %struct.block_region_, ptr %14, i32 0, i32 2
  %16 = load i64, ptr %15, align 8
  %17 = call i32 @munmap(ptr noundef %13, i64 noundef %16) #8
  %18 = icmp ne i32 %17, 0
  br i1 %18, label %19, label %20

19:                                               ; preds = %10
  br label %23

20:                                               ; preds = %10
  br label %21

21:                                               ; preds = %20, %5, %1
  %22 = load ptr, ptr %2, align 8
  call void @free(ptr noundef %22) #8
  br label %23

23:                                               ; preds = %21, %19
  ret void
}

; Function Attrs: inlinehint nounwind ssp uwtable
define internal void @store64_le(ptr noundef %0, i64 noundef %1) #2 {
  %3 = alloca ptr, align 8
  %4 = alloca i64, align 8
  store ptr %0, ptr %3, align 8
  store i64 %1, ptr %4, align 8
  %5 = load ptr, ptr %3, align 8
  %6 = call ptr @memcpy.inline(ptr noundef %5, ptr noundef %4, i64 noundef 8) #8
  ret void
}

; Function Attrs: alwaysinline nounwind
define internal ptr @memcpy.inline(ptr noalias nonnull %0, ptr noalias nonnull %1, i64 %2) #5 {
  %4 = alloca ptr, align 8
  %5 = alloca ptr, align 8
  %6 = alloca i64, align 8
  store ptr %0, ptr %4, align 8
  store ptr %1, ptr %5, align 8
  store i64 %2, ptr %6, align 8
  %7 = load ptr, ptr %4, align 8
  %8 = load ptr, ptr %5, align 8
  %9 = load i64, ptr %6, align 8
  %10 = load ptr, ptr %4, align 8
  %11 = call i64 @llvm.objectsize.i64.p0(ptr %10, i1 false, i1 true, i1 true)
  %12 = call ptr @__memcpy_chk(ptr noundef %7, ptr noundef %8, i64 noundef %9, i64 noundef %11) #8
  ret ptr %12
}

; Function Attrs: nounwind ssp uwtable
define internal void @argon2_free_instance(ptr noundef %0, i32 noundef %1) #0 {
  %3 = alloca ptr, align 8
  %4 = alloca i32, align 4
  store ptr %0, ptr %3, align 8
  store i32 %1, ptr %4, align 4
  %5 = load ptr, ptr %3, align 8
  %6 = getelementptr inbounds nuw %struct.Argon2_instance_t, ptr %5, i32 0, i32 1
  %7 = load ptr, ptr %6, align 8
  call void @free(ptr noundef %7) #8
  %8 = load ptr, ptr %3, align 8
  %9 = getelementptr inbounds nuw %struct.Argon2_instance_t, ptr %8, i32 0, i32 1
  store ptr null, ptr %9, align 8
  %10 = load ptr, ptr %3, align 8
  %11 = getelementptr inbounds nuw %struct.Argon2_instance_t, ptr %10, i32 0, i32 0
  %12 = load ptr, ptr %11, align 8
  call void @free_memory(ptr noundef %12)
  %13 = load ptr, ptr %3, align 8
  %14 = getelementptr inbounds nuw %struct.Argon2_instance_t, ptr %13, i32 0, i32 0
  store ptr null, ptr %14, align 8
  ret void
}

; Function Attrs: nounwind ssp uwtable
define internal void @store_block(ptr noundef %0, ptr noundef %1) #0 {
  %3 = alloca ptr, align 8
  %4 = alloca ptr, align 8
  %5 = alloca i32, align 4
  store ptr %0, ptr %3, align 8
  store ptr %1, ptr %4, align 8
  call void @llvm.lifetime.start.p0(i64 4, ptr %5) #8
  store i32 0, ptr %5, align 4
  br label %6

6:                                                ; preds = %21, %2
  %7 = load i32, ptr %5, align 4
  %8 = icmp ult i32 %7, 128
  br i1 %8, label %9, label %24

9:                                                ; preds = %6
  %10 = load ptr, ptr %3, align 8
  %11 = load i32, ptr %5, align 4
  %12 = zext i32 %11 to i64
  %13 = mul i64 %12, 8
  %14 = getelementptr i8, ptr %10, i64 %13
  %15 = load ptr, ptr %4, align 8
  %16 = getelementptr inbounds nuw %struct.block_, ptr %15, i32 0, i32 0
  %17 = load i32, ptr %5, align 4
  %18 = zext i32 %17 to i64
  %19 = getelementptr [128 x i64], ptr %16, i64 0, i64 %18
  %20 = load i64, ptr %19, align 8
  call void @store64_le(ptr noundef %14, i64 noundef %20)
  br label %21

21:                                               ; preds = %9
  %22 = load i32, ptr %5, align 4
  %23 = add i32 %22, 1
  store i32 %23, ptr %5, align 4
  br label %6, !llvm.loop !7

24:                                               ; preds = %6
  call void @llvm.lifetime.end.p0(i64 4, ptr %5) #8
  ret void
}

; Function Attrs: inlinehint nounwind ssp uwtable
define internal void @xor_block(ptr noundef %0, ptr noundef %1) #2 {
  %3 = alloca ptr, align 8
  %4 = alloca ptr, align 8
  %5 = alloca i32, align 4
  store ptr %0, ptr %3, align 8
  store ptr %1, ptr %4, align 8
  call void @llvm.lifetime.start.p0(i64 4, ptr %5) #8
  store i32 0, ptr %5, align 4
  br label %6

6:                                                ; preds = %23, %2
  %7 = load i32, ptr %5, align 4
  %8 = icmp slt i32 %7, 128
  br i1 %8, label %9, label %26

9:                                                ; preds = %6
  %10 = load ptr, ptr %4, align 8
  %11 = getelementptr inbounds nuw %struct.block_, ptr %10, i32 0, i32 0
  %12 = load i32, ptr %5, align 4
  %13 = sext i32 %12 to i64
  %14 = getelementptr [128 x i64], ptr %11, i64 0, i64 %13
  %15 = load i64, ptr %14, align 8
  %16 = load ptr, ptr %3, align 8
  %17 = getelementptr inbounds nuw %struct.block_, ptr %16, i32 0, i32 0
  %18 = load i32, ptr %5, align 4
  %19 = sext i32 %18 to i64
  %20 = getelementptr [128 x i64], ptr %17, i64 0, i64 %19
  %21 = load i64, ptr %20, align 8
  %22 = xor i64 %21, %15
  store i64 %22, ptr %20, align 8
  br label %23

23:                                               ; preds = %9
  %24 = load i32, ptr %5, align 4
  %25 = add i32 %24, 1
  store i32 %25, ptr %5, align 4
  br label %6, !llvm.loop !6

26:                                               ; preds = %6
  call void @llvm.lifetime.end.p0(i64 4, ptr %5) #8
  ret void
}

; Function Attrs: inlinehint nounwind ssp uwtable
define internal void @copy_block(ptr noundef %0, ptr noundef %1) #2 {
  %3 = alloca ptr, align 8
  %4 = alloca ptr, align 8
  store ptr %0, ptr %3, align 8
  store ptr %1, ptr %4, align 8
  %5 = load ptr, ptr %3, align 8
  %6 = getelementptr inbounds nuw %struct.block_, ptr %5, i32 0, i32 0
  %7 = getelementptr inbounds [128 x i64], ptr %6, i64 0, i64 0
  %8 = load ptr, ptr %4, align 8
  %9 = getelementptr inbounds nuw %struct.block_, ptr %8, i32 0, i32 0
  %10 = getelementptr inbounds [128 x i64], ptr %9, i64 0, i64 0
  %11 = call ptr @memcpy.inline(ptr noundef %7, ptr noundef %10, i64 noundef 1024) #8
  ret void
}

; Function Attrs: nounwind ssp uwtable
define hidden void @_sodium_argon2_finalize(ptr noundef %0, ptr noundef %1) #0 {
  %3 = alloca ptr, align 8
  %4 = alloca ptr, align 8
  %5 = alloca %struct.block_, align 8
  %6 = alloca i32, align 4
  %7 = alloca i32, align 4
  %8 = alloca [1024 x i8], align 16
  store ptr %0, ptr %3, align 8
  store ptr %1, ptr %4, align 8
  %9 = load ptr, ptr %3, align 8
  %10 = icmp ne ptr %9, null
  br i1 %10, label %11, label %72

11:                                               ; preds = %2
  %12 = load ptr, ptr %4, align 8
  %13 = icmp ne ptr %12, null
  br i1 %13, label %14, label %72

14:                                               ; preds = %11
  call void @llvm.lifetime.start.p0(i64 1024, ptr %5) #8
  call void @llvm.lifetime.start.p0(i64 4, ptr %6) #8
  %15 = load ptr, ptr %4, align 8
  %16 = getelementptr inbounds nuw %struct.Argon2_instance_t, ptr %15, i32 0, i32 0
  %17 = load ptr, ptr %16, align 8
  %18 = getelementptr inbounds nuw %struct.block_region_, ptr %17, i32 0, i32 1
  %19 = load ptr, ptr %18, align 8
  %20 = load ptr, ptr %4, align 8
  %21 = getelementptr inbounds nuw %struct.Argon2_instance_t, ptr %20, i32 0, i32 6
  %22 = load i32, ptr %21, align 8
  %23 = zext i32 %22 to i64
  %24 = getelementptr %struct.block_, ptr %19, i64 %23
  %25 = getelementptr %struct.block_, ptr %24, i64 -1
  call void @copy_block(ptr noundef %5, ptr noundef %25)
  store i32 1, ptr %6, align 4
  br label %26

26:                                               ; preds = %51, %14
  %27 = load i32, ptr %6, align 4
  %28 = load ptr, ptr %4, align 8
  %29 = getelementptr inbounds nuw %struct.Argon2_instance_t, ptr %28, i32 0, i32 7
  %30 = load i32, ptr %29, align 4
  %31 = icmp ult i32 %27, %30
  br i1 %31, label %32, label %54

32:                                               ; preds = %26
  call void @llvm.lifetime.start.p0(i64 4, ptr %7) #8
  %33 = load i32, ptr %6, align 4
  %34 = load ptr, ptr %4, align 8
  %35 = getelementptr inbounds nuw %struct.Argon2_instance_t, ptr %34, i32 0, i32 6
  %36 = load i32, ptr %35, align 8
  %37 = mul i32 %33, %36
  %38 = load ptr, ptr %4, align 8
  %39 = getelementptr inbounds nuw %struct.Argon2_instance_t, ptr %38, i32 0, i32 6
  %40 = load i32, ptr %39, align 8
  %41 = sub i32 %40, 1
  %42 = add i32 %37, %41
  store i32 %42, ptr %7, align 4
  %43 = load ptr, ptr %4, align 8
  %44 = getelementptr inbounds nuw %struct.Argon2_instance_t, ptr %43, i32 0, i32 0
  %45 = load ptr, ptr %44, align 8
  %46 = getelementptr inbounds nuw %struct.block_region_, ptr %45, i32 0, i32 1
  %47 = load ptr, ptr %46, align 8
  %48 = load i32, ptr %7, align 4
  %49 = zext i32 %48 to i64
  %50 = getelementptr %struct.block_, ptr %47, i64 %49
  call void @xor_block(ptr noundef %5, ptr noundef %50)
  call void @llvm.lifetime.end.p0(i64 4, ptr %7) #8
  br label %51

51:                                               ; preds = %32
  %52 = load i32, ptr %6, align 4
  %53 = add i32 %52, 1
  store i32 %53, ptr %6, align 4
  br label %26, !llvm.loop !4

54:                                               ; preds = %26
  call void @llvm.lifetime.start.p0(i64 1024, ptr %8) #8
  %55 = getelementptr inbounds [1024 x i8], ptr %8, i64 0, i64 0
  call void @store_block(ptr noundef %55, ptr noundef %5)
  %56 = load ptr, ptr %3, align 8
  %57 = getelementptr inbounds nuw %struct.Argon2_Context, ptr %56, i32 0, i32 0
  %58 = load ptr, ptr %57, align 8
  %59 = load ptr, ptr %3, align 8
  %60 = getelementptr inbounds nuw %struct.Argon2_Context, ptr %59, i32 0, i32 1
  %61 = load i32, ptr %60, align 8
  %62 = zext i32 %61 to i64
  %63 = getelementptr inbounds [1024 x i8], ptr %8, i64 0, i64 0
  %64 = call i32 @_sodium_blake2b_long(ptr noundef %58, i64 noundef %62, ptr noundef %63, i64 noundef 1024)
  %65 = getelementptr inbounds nuw %struct.block_, ptr %5, i32 0, i32 0
  %66 = getelementptr inbounds [128 x i64], ptr %65, i64 0, i64 0
  call void @sodium_memzero(ptr noundef %66, i64 noundef 1024)
  %67 = getelementptr inbounds [1024 x i8], ptr %8, i64 0, i64 0
  call void @sodium_memzero(ptr noundef %67, i64 noundef 1024)
  call void @llvm.lifetime.end.p0(i64 1024, ptr %8) #8
  %68 = load ptr, ptr %4, align 8
  %69 = load ptr, ptr %3, align 8
  %70 = getelementptr inbounds nuw %struct.Argon2_Context, ptr %69, i32 0, i32 14
  %71 = load i32, ptr %70, align 4
  call void @argon2_free_instance(ptr noundef %68, i32 noundef %71)
  call void @llvm.lifetime.end.p0(i64 4, ptr %6) #8
  call void @llvm.lifetime.end.p0(i64 1024, ptr %5) #8
  br label %72

72:                                               ; preds = %54, %11, %2
  ret void
}