; Function Attrs: nounwind ssp uwtable
define hidden void @_sodium_argon2_finalize(ptr noundef readonly captures(address_is_null) %0, ptr noundef captures(address_is_null) %1) local_unnamed_addr #0 {
  %3 = alloca i64, align 8
  %4 = alloca %struct.block_, align 8
  %5 = alloca [1024 x i8], align 16
  %6 = icmp ne ptr %0, null
  %7 = icmp ne ptr %1, null
  %or.cond = and i1 %6, %7
  br i1 %or.cond, label %8, label %55

8:                                                ; preds = %2
  call void @llvm.lifetime.start.p0(i64 1024, ptr nonnull %4) #10
  %9 = load ptr, ptr %1, align 8
  %10 = getelementptr inbounds nuw i8, ptr %9, i64 8
  %11 = load ptr, ptr %10, align 8
  %12 = getelementptr inbounds nuw i8, ptr %1, i64 32
  %13 = load i32, ptr %12, align 8
  %14 = zext i32 %13 to i64
  %15 = getelementptr %struct.block_, ptr %11, i64 %14
  %16 = getelementptr i8, ptr %15, i64 -1024
  call void @llvm.memcpy.p0.p0.i64(ptr noundef nonnull align 8 dereferenceable(1024) %4, ptr noundef nonnull readonly align 1 dereferenceable(1024) %16, i64 noundef 1024, i1 noundef false) #10
  %17 = getelementptr inbounds nuw i8, ptr %1, i64 36
  %18 = load i32, ptr %17, align 4
  %19 = icmp ugt i32 %18, 1
  br i1 %19, label %.lr.ph, label %._crit_edge

.lr.ph:                                           ; preds = %8
  %20 = add i32 %13, -1
  %wide.trip.count = zext i32 %18 to i64
  br label %21

21:                                               ; preds = %.lr.ph, %xor_block.exit
  %indvars.iv = phi i64 [ 1, %.lr.ph ], [ %indvars.iv.next, %xor_block.exit ]
  %22 = trunc nuw i64 %indvars.iv to i32
  %23 = mul i32 %13, %22
  %24 = add i32 %20, %23
  %25 = zext i32 %24 to i64
  %26 = getelementptr %struct.block_, ptr %11, i64 %25
  br label %27

27:                                               ; preds = %27, %21
  %indvars.iv.i = phi i64 [ 0, %21 ], [ %indvars.iv.next.i, %27 ]
  %28 = getelementptr [128 x i64], ptr %26, i64 0, i64 %indvars.iv.i
  %29 = load i64, ptr %28, align 8
  %30 = getelementptr [128 x i64], ptr %4, i64 0, i64 %indvars.iv.i
  %31 = load i64, ptr %30, align 8
  %32 = xor i64 %31, %29
  store i64 %32, ptr %30, align 8
  %indvars.iv.next.i = add nuw nsw i64 %indvars.iv.i, 1
  %exitcond.not.i = icmp eq i64 %indvars.iv.next.i, 128
  br i1 %exitcond.not.i, label %xor_block.exit, label %27, !llvm.loop !4

xor_block.exit:                                   ; preds = %27
  %indvars.iv.next = add nuw nsw i64 %indvars.iv, 1
  %exitcond.not = icmp eq i64 %indvars.iv.next, %wide.trip.count
  br i1 %exitcond.not, label %._crit_edge, label %21, !llvm.loop !6

._crit_edge:                                      ; preds = %xor_block.exit, %8
  call void @llvm.lifetime.start.p0(i64 1024, ptr nonnull %5) #10
  br label %33

33:                                               ; preds = %33, %._crit_edge
  %indvars.iv.i18 = phi i64 [ 0, %._crit_edge ], [ %indvars.iv.next.i19, %33 ]
  %34 = shl nuw nsw i64 %indvars.iv.i18, 3
  %35 = getelementptr i8, ptr %5, i64 %34
  %36 = getelementptr [128 x i64], ptr %4, i64 0, i64 %indvars.iv.i18
  %37 = load i64, ptr %36, align 8
  call void @llvm.lifetime.start.p0(i64 8, ptr nonnull %3)
  store i64 %37, ptr %3, align 8
  %38 = sub nuw nsw i64 1024, %34
  %39 = call ptr @__memcpy_chk(ptr noundef nonnull %35, ptr noundef nonnull %3, i64 noundef 8, i64 noundef %38) #10, !alias.scope !7
  call void @llvm.lifetime.end.p0(i64 8, ptr nonnull %3)
  %indvars.iv.next.i19 = add nuw nsw i64 %indvars.iv.i18, 1
  %exitcond.not.i20 = icmp eq i64 %indvars.iv.next.i19, 128
  br i1 %exitcond.not.i20, label %store_block.exit, label %33, !llvm.loop !11

store_block.exit:                                 ; preds = %33
  %40 = load ptr, ptr %0, align 8
  %41 = getelementptr inbounds nuw i8, ptr %0, i64 8
  %42 = load i32, ptr %41, align 8
  %43 = zext i32 %42 to i64
  %44 = call i32 @_sodium_blake2b_long(ptr noundef %40, i64 noundef %43, ptr noundef nonnull %5, i64 noundef 1024) #10
  call void @sodium_memzero(ptr noundef nonnull %4, i64 noundef 1024) #10
  call void @sodium_memzero(ptr noundef nonnull %5, i64 noundef 1024) #10
  call void @llvm.lifetime.end.p0(i64 1024, ptr nonnull %5) #10
  %45 = getelementptr inbounds nuw i8, ptr %1, i64 8
  %46 = load ptr, ptr %45, align 8
  call void @free(ptr noundef %46) #10
  store ptr null, ptr %45, align 8
  %47 = load ptr, ptr %1, align 8
  %.not.i.i = icmp eq ptr %47, null
  br i1 %.not.i.i, label %54, label %48

48:                                               ; preds = %store_block.exit
  %49 = load ptr, ptr %47, align 8
  %.not6.i.i = icmp eq ptr %49, null
  br i1 %.not6.i.i, label %54, label %50

50:                                               ; preds = %48
  %51 = getelementptr inbounds nuw i8, ptr %47, i64 16
  %52 = load i64, ptr %51, align 8
  %53 = call i32 @munmap(ptr noundef nonnull %49, i64 noundef %52) #10
  %.not7.i.i = icmp eq i32 %53, 0
  br i1 %.not7.i.i, label %54, label %argon2_free_instance.exit

54:                                               ; preds = %50, %48, %store_block.exit
  call void @free(ptr noundef %47) #10
  br label %argon2_free_instance.exit

argon2_free_instance.exit:                        ; preds = %50, %54
  store ptr null, ptr %1, align 8
  call void @llvm.lifetime.end.p0(i64 1024, ptr nonnull %4) #10
  br label %55

55:                                               ; preds = %argon2_free_instance.exit, %2
  ret void
}